target datalayout = "e-m:e-p270:32:32-p271:32:32-p272:64:64-i64:64-i128:128-f80:128-n8:16:32:64-S128"
target triple = "x86_64-pc-linux-gnu"

%struct.H5O_link_t = type { i32, i8, i64, i32, ptr, %union.anon.0 }
%union.anon.0 = type { %struct.H5O_link_ud_t }
%struct.H5O_link_ud_t = type { ptr, i64 }
%struct.H5G_link_table_t = type { i64, ptr }
%struct.H5G_dense_bt_ud_t = type { ptr, i64 }

@.str = private unnamed_addr constant [102 x i8] c"generated/home/dtcxzyw/WorkSpace/Projects/compilers/llvm-opt-benchmark/bench/hdf5/hdf5/src/H5Gdense.c\00", align 1
@H5E_SYM_g = external global i64, align 8
@H5E_CANTCOPY_g = external global i64, align 8
@.str.26 = private unnamed_addr constant [24 x i8] c"can't copy link message\00", align 1
@__func__.H5G__dense_build_table_cb = private unnamed_addr constant [26 x i8] c"H5G__dense_build_table_cb\00", align 1

; Function Attrs: nounwind uwtable
define internal i32 @H5G__dense_build_table_cb(ptr noundef %0, ptr noundef %1) #0 {
  %3 = alloca ptr, align 8
  %4 = alloca ptr, align 8
  %5 = alloca ptr, align 8
  %6 = alloca i32, align 4
  %7 = alloca i8, align 1
  store ptr %0, ptr %3, align 8
  store ptr %1, ptr %4, align 8
  %8 = load ptr, ptr %4, align 8
  store ptr %8, ptr %5, align 8
  store i32 0, ptr %6, align 4
  store i8 0, ptr %7, align 1
  %9 = load ptr, ptr %3, align 8
  %10 = load ptr, ptr %5, align 8
  %11 = getelementptr inbounds %struct.H5G_dense_bt_ud_t, ptr %10, i32 0, i32 0
  %12 = load ptr, ptr %11, align 8
  %13 = getelementptr inbounds %struct.H5G_link_table_t, ptr %12, i32 0, i32 1
  %14 = load ptr, ptr %13, align 8
  %15 = load ptr, ptr %5, align 8
  %16 = getelementptr inbounds %struct.H5G_dense_bt_ud_t, ptr %15, i32 0, i32 1
  %17 = load i64, ptr %16, align 8
  %18 = getelementptr inbounds %struct.H5O_link_t, ptr %14, i64 %17
  %19 = call ptr @H5O_msg_copy(i32 noundef 6, ptr noundef %9, ptr noundef %18)
  %20 = icmp eq ptr %19, null
  br i1 %20, label %21, label %36

21:                                               ; preds = %2
  br label %22

22:                                               ; preds = %21
  br label %23

23:                                               ; preds = %22
  br label %24

24:                                               ; preds = %23
  %25 = load i64, ptr @H5E_SYM_g, align 8
  %26 = load i64, ptr @H5E_CANTCOPY_g, align 8
  %27 = call i32 (ptr, ptr, i32, i64, i64, ptr, ...) @H5E_printf_stack(ptr noundef @.str, ptr noundef @__func__.H5G__dense_build_table_cb, i32 noundef 721, i64 noundef %25, i64 noundef %26, ptr noundef @.str.26)
  br label %28

28:                                               ; preds = %24
  store i8 1, ptr %7, align 1
  %29 = load i8, ptr %7, align 1
  %30 = trunc i8 %29 to i1
  %31 = zext i1 %30 to i8
  store i8 %31, ptr %7, align 1
  br label %32

32:                                               ; preds = %28
  br label %33

33:                                               ; preds = %32
  store i32 -1, ptr %6, align 4
  br label %41

34:                                               ; No predecessors!
  br label %35

35:                                               ; preds = %34
  br label %36

36:                                               ; preds = %35, %2
  %37 = load ptr, ptr %5, align 8
  %38 = getelementptr inbounds %struct.H5G_dense_bt_ud_t, ptr %37, i32 0, i32 1
  %39 = load i64, ptr %38, align 8
  %40 = add i64 %39, 1
  store i64 %40, ptr %38, align 8
  br label %41

41:                                               ; preds = %36, %33
  %42 = load i32, ptr %6, align 4
  ret i32 %42
}