; Function Attrs: nounwind uwtable
define internal range(i32 -1, 1) i32 @H5G__dense_build_table_cb(ptr noundef %0, ptr nocapture noundef %1) #0 {
  %3 = load ptr, ptr %1, align 8
  %4 = getelementptr inbounds i8, ptr %3, i64 8
  %5 = load ptr, ptr %4, align 8
  %6 = getelementptr inbounds i8, ptr %1, i64 8
  %7 = load i64, ptr %6, align 8
  %8 = getelementptr inbounds %struct.H5O_link_t, ptr %5, i64 %7
  %9 = tail call ptr @H5O_msg_copy(i32 noundef 6, ptr noundef %0, ptr noundef %8) #8
  %10 = icmp eq ptr %9, null
  br i1 %10, label %11, label %15

11:                                               ; preds = %2
  %12 = load i64, ptr @H5E_SYM_g, align 8
  %13 = load i64, ptr @H5E_CANTCOPY_g, align 8
  %14 = tail call i32 (ptr, ptr, i32, i64, i64, ptr, ...) @H5E_printf_stack(ptr noundef nonnull @.str, ptr noundef nonnull @__func__.H5G__dense_build_table_cb, i32 noundef 721, i64 noundef %12, i64 noundef %13, ptr noundef nonnull @.str.26) #8
  br label %18

15:                                               ; preds = %2
  %16 = load i64, ptr %6, align 8
  %17 = add i64 %16, 1
  store i64 %17, ptr %6, align 8
  br label %18

18:                                               ; preds = %15, %11
  %.0 = phi i32 [ -1, %11 ], [ 0, %15 ]
  ret i32 %.0
}